; Function Attrs: mustprogress uwtable
define void @_ZN6google8protobuf19UninterpretedOption12InternalSwapEPS1_(ptr noundef nonnull align 8 dereferenceable(96) %this, ptr noalias noundef %other) local_unnamed_addr #3 align 2 {
entry:
  %_internal_metadata_.i = getelementptr inbounds i8, ptr %this, i64 8
  %0 = load i64, ptr %_internal_metadata_.i, align 8
  %_internal_metadata_3 = getelementptr inbounds i8, ptr %other, i64 8
  %1 = load i64, ptr %_internal_metadata_3, align 8
  store i64 %1, ptr %_internal_metadata_.i, align 8
  store i64 %0, ptr %_internal_metadata_3, align 8
  %2 = getelementptr inbounds i8, ptr %this, i64 16
  %3 = getelementptr inbounds i8, ptr %other, i64 16
  %4 = load i32, ptr %2, align 8
  %5 = load i32, ptr %3, align 4
  store i32 %5, ptr %2, align 8
  store i32 %4, ptr %3, align 4
  %name_ = getelementptr inbounds i8, ptr %this, i64 24
  %name_7 = getelementptr inbounds i8, ptr %other, i64 24
  tail call void @_ZN6google8protobuf8internal7memswapILm16EEEvPcS3_(ptr noundef nonnull %name_, ptr noundef nonnull %name_7)
  %identifier_value_ = getelementptr inbounds i8, ptr %this, i64 48
  %identifier_value_8 = getelementptr inbounds i8, ptr %other, i64 48
  %6 = load <2 x ptr>, ptr %identifier_value_8, align 8
  %7 = load <2 x i64>, ptr %identifier_value_, align 8
  store <2 x i64> %7, ptr %identifier_value_8, align 8
  store <2 x ptr> %6, ptr %identifier_value_, align 8
  %aggregate_value_ = getelementptr inbounds i8, ptr %this, i64 64
  %aggregate_value_10 = getelementptr inbounds i8, ptr %other, i64 64
  %__tmp.sroa.0.0.copyload.i10 = load ptr, ptr %aggregate_value_10, align 8
  %8 = load i64, ptr %aggregate_value_, align 8
  store i64 %8, ptr %aggregate_value_10, align 8
  store ptr %__tmp.sroa.0.0.copyload.i10, ptr %aggregate_value_, align 8
  %positive_int_value_ = getelementptr inbounds i8, ptr %this, i64 72
  %positive_int_value_11 = getelementptr i8, ptr %other, i64 72
  tail call void @llvm.experimental.noalias.scope.decl(metadata !153)
  tail call void @llvm.experimental.noalias.scope.decl(metadata !156)
  br label %for.body.i.i

for.body.i.i:                                     ; preds = %for.body.i.i, %entry
  %__first2.addr.07.i.i = phi ptr [ %incdec.ptr1.i.i, %for.body.i.i ], [ %positive_int_value_11, %entry ]
  %__first1.addr.06.i.idx.i = phi i64 [ %__first1.addr.06.i.add.i, %for.body.i.i ], [ 0, %entry ]
  %__first1.addr.06.i.ptr.i = getelementptr inbounds i8, ptr %positive_int_value_, i64 %__first1.addr.06.i.idx.i
  %9 = load i8, ptr %__first1.addr.06.i.ptr.i, align 1, !alias.scope !153, !noalias !156
  %10 = load i8, ptr %__first2.addr.07.i.i, align 1, !alias.scope !156, !noalias !153
  store i8 %10, ptr %__first1.addr.06.i.ptr.i, align 1, !alias.scope !153, !noalias !156
  store i8 %9, ptr %__first2.addr.07.i.i, align 1, !alias.scope !156, !noalias !153
  %__first1.addr.06.i.add.i = add nuw nsw i64 %__first1.addr.06.i.idx.i, 1
  %incdec.ptr1.i.i = getelementptr inbounds i8, ptr %__first2.addr.07.i.i, i64 1
  %cmp.not.i.i = icmp eq i64 %__first1.addr.06.i.add.i, 24
  br i1 %cmp.not.i.i, label %_ZN6google8protobuf8internal7memswapILm24EEEvPcS3_.exit, label %for.body.i.i, !llvm.loop !45

_ZN6google8protobuf8internal7memswapILm24EEEvPcS3_.exit: ; preds = %for.body.i.i
  ret void
}